Certificate:
    Data:
        Version: 3 (0x2)
        Serial Number: 4097 (0x1001)
    Signature Algorithm: sha256WithRSAEncryption
        Issuer: C=IN, ST=KARNATAKA, L=BANGALORE, O=ZSCALER, OU=NANALOG, CN=10.10.35.66/emailAddress=sbirada@zscaler.com
        Validity
            Not Before: Aug  5 10:10:20 2016 GMT
            Not After : Aug  5 10:10:20 2017 GMT
        Subject: C=IN, ST=KARNATAKA, O=ZSCALER, OU=NANALOG, CN=10.10.35.180/emailAddress=sbirada@zscaler.com
        Subject Public Key Info:
            Public Key Algorithm: rsaEncryption
                Public-Key: (2048 bit)
                Modulus:
                    00:a2:45:3b:31:97:2b:00:36:18:57:01:fe:1d:fa:
                    0b:a6:47:39:ff:5f:98:c6:12:c6:0b:01:40:a3:21:
                    a6:4c:5c:c1:f6:1c:53:da:36:eb:71:84:2d:5a:40:
                    b6:ef:86:0f:71:9c:31:56:c7:ff:73:61:09:8d:51:
                    7d:4c:ef:2b:a0:9a:ca:a5:c4:fb:9d:da:80:16:2c:
                    29:1e:f2:f2:e6:3c:e1:bd:e5:ee:a4:ef:7f:7c:d2:
                    5a:ac:ff:eb:08:b9:44:d6:cd:70:57:3c:85:91:34:
                    a0:47:29:62:a9:a6:d3:6d:ac:b7:21:ba:39:c0:0d:
                    4d:3b:9b:4c:70:b9:be:cb:b9:02:7f:2b:2f:0e:70:
                    0c:51:67:a1:14:7e:1f:b9:c8:ee:76:17:89:00:4f:
                    8e:ef:15:0d:de:cc:a4:c0:31:0e:fd:83:f9:2b:54:
                    be:84:21:17:fd:bc:bb:43:55:1c:5b:27:ec:1f:5b:
                    de:cd:32:43:80:8f:13:de:6c:75:2c:dd:c8:0d:91:
                    0a:0c:48:96:88:e6:b5:40:8e:cb:c9:dc:48:35:8a:
                    5e:83:ea:00:59:bc:61:1d:65:02:60:09:c0:7d:91:
                    42:1d:b3:43:d0:3b:f1:bb:98:7c:c0:01:46:07:27:
                    e6:58:dd:04:04:bc:24:5e:a7:27:ed:54:ef:59:52:
                    7e:8b
                Exponent: 65537 (0x10001)
        X509v3 extensions:
            X509v3 Basic Constraints: 
                CA:FALSE
            Netscape Comment: 
                OpenSSL Generated Certificate
            X509v3 Subject Key Identifier: 
                3E:C5:A6:4E:C7:BC:6D:D7:BE:0A:62:21:90:34:3A:C3:2E:21:61:D0
            X509v3 Authority Key Identifier: 
                keyid:9B:3C:AC:B4:E1:4E:0B:B5:C3:68:03:61:CB:9C:0F:A2:7E:77:60:83

            X509v3 Subject Alternative Name: 
                IP Address:10.10.35.66
    Signature Algorithm: sha256WithRSAEncryption
         9e:7c:08:32:69:5e:5d:ec:d5:6a:8c:e4:a4:a0:3a:c1:84:ba:
         e0:17:5e:f1:ed:f7:7e:12:96:98:cf:2e:0d:b2:9d:7f:fe:9b:
         f5:e8:ec:fa:72:55:c1:a0:bc:b3:14:b8:a7:2b:d4:bd:06:77:
         f5:db:42:ce:01:8b:00:44:fa:9d:d4:a0:7b:62:48:f9:ab:81:
         a2:c1:85:41:72:91:f6:c3:13:37:00:8c:c2:93:14:28:c7:cd:
         f3:ff:24:b6:5c:7e:79:31:8f:c8:86:40:d9:55:6f:70:89:49:
         71:6f:21:a2:b7:15:8b:36:4f:13:30:4f:49:47:41:23:03:1d:
         19:1b:08:ab:ce:ef:2b:38:93:82:73:60:91:eb:fb:1b:3b:01:
         67:c2:1f:da:ef:ed:6e:d0:bc:bd:e3:79:57:60:b9:bd:0b:07:
         13:0e:c9:00:37:4e:b7:5a:cd:ab:1e:55:8c:fc:9b:fb:2f:5e:
         6f:54:a8:23:93:4a:c1:81:98:90:8c:da:76:f2:d1:ca:f5:df:
         35:65:9a:c5:44:8c:cc:16:72:b5:12:59:61:99:bc:39:b3:07:
         99:97:5a:9b:9c:e4:c3:47:d0:00:0d:bd:ac:8c:7c:f0:8b:aa:
         44:38:5f:cd:05:50:ee:cf:17:6f:ac:b5:4e:1d:a5:71:15:c5:
         f3:4a:f4:e1
-----BEGIN CERTIFICATE-----
MIIEHzCCAwegAwIBAgICEAEwDQYJKoZIhvcNAQELBQAwgZMxCzAJBgNVBAYTAklO
MRIwEAYDVQQIDAlLQVJOQVRBS0ExEjAQBgNVBAcMCUJBTkdBTE9SRTEQMA4GA1UE
CgwHWlNDQUxFUjEQMA4GA1UECwwHTkFOQUxPRzEUMBIGA1UEAwwLMTAuMTAuMzUu
NjYxIjAgBgkqhkiG9w0BCQEWE3NiaXJhZGFAenNjYWxlci5jb20wHhcNMTYwODA1
MTAxMDIwWhcNMTcwODA1MTAxMDIwWjCBgDELMAkGA1UEBhMCSU4xEjAQBgNVBAgM
CUtBUk5BVEFLQTEQMA4GA1UECgwHWlNDQUxFUjEQMA4GA1UECwwHTkFOQUxPRzEV
MBMGA1UEAwwMMTAuMTAuMzUuMTgwMSIwIAYJKoZIhvcNAQkBFhNzYmlyYWRhQHpz
Y2FsZXIuY29tMIIBIjANBgkqhkiG9w0BAQEFAAOCAQ8AMIIBCgKCAQEAokU7MZcr
ADYYVwH+HfoLpkc5/1+YxhLGCwFAoyGmTFzB9hxT2jbrcYQtWkC274YPcZwxVsf/
c2EJjVF9TO8roJrKpcT7ndqAFiwpHvLy5jzhveXupO9/fNJarP/rCLlE1s1wVzyF
kTSgRyliqabTbay3Ibo5wA1NO5tMcLm+y7kCfysvDnAMUWehFH4fucjudheJAE+O
7xUN3sykwDEO/YP5K1S+hCEX/by7Q1UcWyfsH1vezTJDgI8T3mx1LN3IDZEKDEiW
iOa1QI7LydxINYpeg+oAWbxhHWUCYAnAfZFCHbND0Dvxu5h8wAFGByfmWN0EBLwk
Xqcn7VTvWVJ+iwIDAQABo4GNMIGKMAkGA1UdEwQCMAAwLAYJYIZIAYb4QgENBB8W
HU9wZW5TU0wgR2VuZXJhdGVkIENlcnRpZmljYXRlMB0GA1UdDgQWBBQ+xaZOx7xt
174KYiGQNDrDLiFh0DAfBgNVHSMEGDAWgBSbPKy04U4LtcNoA2HLnA+ifndggzAP
BgNVHREECDAGhwQKCiNCMA0GCSqGSIb3DQEBCwUAA4IBAQCefAgyaV5d7NVqjOSk
oDrBhLrgF17x7fd+EpaYzy4Nsp1//pv16Oz6clXBoLyzFLinK9S9Bnf120LOAYsA
RPqd1KB7Ykj5q4GiwYVBcpH2wxM3AIzCkxQox83z/yS2XH55MY/IhkDZVW9wiUlx
byGitxWLNk8TME9JR0EjAx0ZGwirzu8rOJOCc2CR6/sbOwFnwh/a7+1u0Ly943lX
YLm9CwcTDskAN063Ws2rHlWM/Jv7L15vVKgjk0rBgZiQjNp28tHK9d81ZZrFRIzM
FnK1Ellhmbw5sweZl1qbnOTDR9AADb2sjHzwi6pEOF/NBVDuzxdvrLVOHaVxFcXz
SvTh
-----END CERTIFICATE-----
